; ModuleID = 'source-C-CXX/41/950.cpp'
source_filename = "source-C-CXX/41/950.cpp"
target datalayout = "e-m:e-p270:32:32-p271:32:32-p272:64:64-i64:64-f80:128-n8:16:32:64-S128"
target triple = "x86_64-pc-linux-gnu"

%"class.std::ios_base::Init" = type { i8 }
%"class.std::basic_istream" = type { i32 (...)**, i64, %"class.std::basic_ios" }
%"class.std::basic_ios" = type { %"class.std::ios_base", %"class.std::basic_ostream"*, i8, i8, %"class.std::basic_streambuf"*, %"class.std::ctype"*, %"class.std::num_put"*, %"class.std::num_get"* }
%"class.std::ios_base" = type { i32 (...)**, i64, i64, i32, i32, i32, %"struct.std::ios_base::_Callback_list"*, %"struct.std::ios_base::_Words", [8 x %"struct.std::ios_base::_Words"], i32, %"struct.std::ios_base::_Words"*, %"class.std::locale" }
%"struct.std::ios_base::_Callback_list" = type { %"struct.std::ios_base::_Callback_list"*, void (i32, %"class.std::ios_base"*, i32)*, i32, i32 }
%"struct.std::ios_base::_Words" = type { i8*, i64 }
%"class.std::locale" = type { %"class.std::locale::_Impl"* }
%"class.std::locale::_Impl" = type { i32, %"class.std::locale::facet"**, i64, %"class.std::locale::facet"**, i8** }
%"class.std::locale::facet" = type <{ i32 (...)**, i32, [4 x i8] }>
%"class.std::basic_ostream" = type { i32 (...)**, %"class.std::basic_ios" }
%"class.std::basic_streambuf" = type { i32 (...)**, i8*, i8*, i8*, i8*, i8*, i8*, %"class.std::locale" }
%"class.std::ctype" = type <{ %"class.std::locale::facet.base", [4 x i8], %struct.__locale_struct*, i8, [7 x i8], i32*, i32*, i16*, i8, [256 x i8], [256 x i8], i8, [6 x i8] }>
%"class.std::locale::facet.base" = type <{ i32 (...)**, i32 }>
%struct.__locale_struct = type { [13 x %struct.__locale_data*], i16*, i32*, i32*, [13 x i8*] }
%struct.__locale_data = type opaque
%"class.std::num_put" = type { %"class.std::locale::facet.base", [4 x i8] }
%"class.std::num_get" = type { %"class.std::locale::facet.base", [4 x i8] }

@_ZStL8__ioinit = internal global %"class.std::ios_base::Init" zeroinitializer, align 1
@__dso_handle = external hidden global i8
@_ZSt3cin = external global %"class.std::basic_istream", align 8
@_ZSt4cout = external global %"class.std::basic_ostream", align 8
@.str = private unnamed_addr constant [2 x i8] c" \00", align 1
@llvm.global_ctors = appending global [1 x { i32, void ()*, i8* }] [{ i32, void ()*, i8* } { i32 65535, void ()* @_GLOBAL__sub_I_950.cpp, i8* null }]

declare void @_ZNSt8ios_base4InitC1Ev(%"class.std::ios_base::Init"* nonnull align 1 dereferenceable(1)) unnamed_addr #0

; Function Attrs: nounwind
declare void @_ZNSt8ios_base4InitD1Ev(%"class.std::ios_base::Init"* nonnull align 1 dereferenceable(1)) unnamed_addr #1

; Function Attrs: nofree nounwind
declare i32 @__cxa_atexit(void (i8*)*, i8*, i8*) local_unnamed_addr #2

; Function Attrs: mustprogress norecurse sspstrong uwtable
define dso_local i32 @main() local_unnamed_addr #3 {
  %1 = alloca [100001 x i32], align 16
  %2 = alloca i32, align 4
  %3 = alloca i32, align 4
  %4 = bitcast [100001 x i32]* %1 to i8*
  call void @llvm.lifetime.start.p0i8(i64 400004, i8* nonnull %4) #7
  %5 = bitcast i32* %2 to i8*
  call void @llvm.lifetime.start.p0i8(i64 4, i8* nonnull %5) #7
  %6 = bitcast i32* %3 to i8*
  call void @llvm.lifetime.start.p0i8(i64 4, i8* nonnull %6) #7
  %7 = call nonnull align 8 dereferenceable(16) %"class.std::basic_istream"* @_ZNSirsERi(%"class.std::basic_istream"* nonnull align 8 dereferenceable(16) @_ZSt3cin, i32* nonnull align 4 dereferenceable(4) %2)
  %8 = load i32, i32* %2, align 4, !tbaa !5
  %9 = icmp slt i32 %8, 1
  br i1 %9, label %18, label %10

10:                                               ; preds = %0, %10
  %11 = phi i64 [ %14, %10 ], [ 1, %0 ]
  %12 = getelementptr inbounds [100001 x i32], [100001 x i32]* %1, i64 0, i64 %11
  %13 = call nonnull align 8 dereferenceable(16) %"class.std::basic_istream"* @_ZNSirsERi(%"class.std::basic_istream"* nonnull align 8 dereferenceable(16) @_ZSt3cin, i32* nonnull align 4 dereferenceable(4) %12)
  %14 = add nuw nsw i64 %11, 1
  %15 = load i32, i32* %2, align 4, !tbaa !5
  %16 = sext i32 %15 to i64
  %17 = icmp slt i64 %11, %16
  br i1 %17, label %10, label %18, !llvm.loop !9

18:                                               ; preds = %10, %0
  %19 = call nonnull align 8 dereferenceable(16) %"class.std::basic_istream"* @_ZNSirsERi(%"class.std::basic_istream"* nonnull align 8 dereferenceable(16) @_ZSt3cin, i32* nonnull align 4 dereferenceable(4) %3)
  %20 = load i32, i32* %3, align 4, !tbaa !5
  %21 = load i32, i32* %2, align 4, !tbaa !5
  %22 = add nsw i32 %21, 1
  %23 = sext i32 %22 to i64
  %24 = getelementptr inbounds [100001 x i32], [100001 x i32]* %1, i64 0, i64 %23
  store i32 %20, i32* %24, align 4, !tbaa !5
  %25 = icmp sgt i32 %21, 0
  br i1 %25, label %26, label %117

26:                                               ; preds = %18
  %27 = zext i32 %21 to i64
  %28 = zext i32 %21 to i64
  %29 = sub nsw i64 %23, %27
  %30 = sub nsw i64 %23, %27
  br label %31

31:                                               ; preds = %26, %112
  %32 = phi i64 [ 0, %26 ], [ %116, %112 ]
  %33 = phi i64 [ %28, %26 ], [ %115, %112 ]
  %34 = phi i64 [ %27, %26 ], [ %114, %112 ]
  %35 = add i64 %30, %32
  %36 = add i64 %35, -8
  %37 = lshr i64 %36, 3
  %38 = add nuw nsw i64 %37, 1
  %39 = add i64 %29, %32
  %40 = getelementptr inbounds [100001 x i32], [100001 x i32]* %1, i64 0, i64 %33
  %41 = load i32, i32* %40, align 4, !tbaa !5
  %42 = icmp ne i32 %41, %20
  %43 = icmp sgt i64 %33, %27
  %44 = select i1 %42, i1 true, i1 %43
  br i1 %44, label %112, label %45

45:                                               ; preds = %31
  %46 = icmp ult i64 %39, 8
  br i1 %46, label %103, label %47

47:                                               ; preds = %45
  %48 = and i64 %39, -8
  %49 = add i64 %34, %48
  %50 = and i64 %38, 1
  %51 = icmp ult i64 %36, 8
  br i1 %51, label %85, label %52

52:                                               ; preds = %47
  %53 = and i64 %38, 4611686018427387902
  br label %54

54:                                               ; preds = %54, %52
  %55 = phi i64 [ 0, %52 ], [ %82, %54 ]
  %56 = phi i64 [ %53, %52 ], [ %83, %54 ]
  %57 = add i64 %34, %55
  %58 = add nsw i64 %57, 1
  %59 = getelementptr inbounds [100001 x i32], [100001 x i32]* %1, i64 0, i64 %58
  %60 = bitcast i32* %59 to <4 x i32>*
  %61 = load <4 x i32>, <4 x i32>* %60, align 4, !tbaa !5
  %62 = getelementptr inbounds i32, i32* %59, i64 4
  %63 = bitcast i32* %62 to <4 x i32>*
  %64 = load <4 x i32>, <4 x i32>* %63, align 4, !tbaa !5
  %65 = getelementptr inbounds [100001 x i32], [100001 x i32]* %1, i64 0, i64 %57
  %66 = bitcast i32* %65 to <4 x i32>*
  store <4 x i32> %61, <4 x i32>* %66, align 4, !tbaa !5
  %67 = getelementptr inbounds i32, i32* %65, i64 4
  %68 = bitcast i32* %67 to <4 x i32>*
  store <4 x i32> %64, <4 x i32>* %68, align 4, !tbaa !5
  %69 = or i64 %55, 8
  %70 = add i64 %34, %69
  %71 = add nsw i64 %70, 1
  %72 = getelementptr inbounds [100001 x i32], [100001 x i32]* %1, i64 0, i64 %71
  %73 = bitcast i32* %72 to <4 x i32>*
  %74 = load <4 x i32>, <4 x i32>* %73, align 4, !tbaa !5
  %75 = getelementptr inbounds i32, i32* %72, i64 4
  %76 = bitcast i32* %75 to <4 x i32>*
  %77 = load <4 x i32>, <4 x i32>* %76, align 4, !tbaa !5
  %78 = getelementptr inbounds [100001 x i32], [100001 x i32]* %1, i64 0, i64 %70
  %79 = bitcast i32* %78 to <4 x i32>*
  store <4 x i32> %74, <4 x i32>* %79, align 4, !tbaa !5
  %80 = getelementptr inbounds i32, i32* %78, i64 4
  %81 = bitcast i32* %80 to <4 x i32>*
  store <4 x i32> %77, <4 x i32>* %81, align 4, !tbaa !5
  %82 = add nuw i64 %55, 16
  %83 = add i64 %56, -2
  %84 = icmp eq i64 %83, 0
  br i1 %84, label %85, label %54, !llvm.loop !11

85:                                               ; preds = %54, %47
  %86 = phi i64 [ 0, %47 ], [ %82, %54 ]
  %87 = icmp eq i64 %50, 0
  br i1 %87, label %101, label %88

88:                                               ; preds = %85
  %89 = add i64 %34, %86
  %90 = add nsw i64 %89, 1
  %91 = getelementptr inbounds [100001 x i32], [100001 x i32]* %1, i64 0, i64 %90
  %92 = bitcast i32* %91 to <4 x i32>*
  %93 = load <4 x i32>, <4 x i32>* %92, align 4, !tbaa !5
  %94 = getelementptr inbounds i32, i32* %91, i64 4
  %95 = bitcast i32* %94 to <4 x i32>*
  %96 = load <4 x i32>, <4 x i32>* %95, align 4, !tbaa !5
  %97 = getelementptr inbounds [100001 x i32], [100001 x i32]* %1, i64 0, i64 %89
  %98 = bitcast i32* %97 to <4 x i32>*
  store <4 x i32> %93, <4 x i32>* %98, align 4, !tbaa !5
  %99 = getelementptr inbounds i32, i32* %97, i64 4
  %100 = bitcast i32* %99 to <4 x i32>*
  store <4 x i32> %96, <4 x i32>* %100, align 4, !tbaa !5
  br label %101

101:                                              ; preds = %85, %88
  %102 = icmp eq i64 %39, %48
  br i1 %102, label %112, label %103

103:                                              ; preds = %45, %101
  %104 = phi i64 [ %34, %45 ], [ %49, %101 ]
  br label %105

105:                                              ; preds = %103, %105
  %106 = phi i64 [ %107, %105 ], [ %104, %103 ]
  %107 = add nsw i64 %106, 1
  %108 = getelementptr inbounds [100001 x i32], [100001 x i32]* %1, i64 0, i64 %107
  %109 = load i32, i32* %108, align 4, !tbaa !5
  %110 = getelementptr inbounds [100001 x i32], [100001 x i32]* %1, i64 0, i64 %106
  store i32 %109, i32* %110, align 4, !tbaa !5
  %111 = icmp eq i64 %107, %23
  br i1 %111, label %112, label %105, !llvm.loop !13

112:                                              ; preds = %105, %101, %31
  %113 = icmp sgt i64 %33, 1
  %114 = add nsw i64 %34, -1
  %115 = add nsw i64 %33, -1
  %116 = add i64 %32, 1
  br i1 %113, label %31, label %117, !llvm.loop !15

117:                                              ; preds = %112, %18
  %118 = getelementptr inbounds [100001 x i32], [100001 x i32]* %1, i64 0, i64 1
  %119 = load i32, i32* %118, align 4, !tbaa !5
  %120 = call nonnull align 8 dereferenceable(8) %"class.std::basic_ostream"* @_ZNSolsEi(%"class.std::basic_ostream"* nonnull align 8 dereferenceable(8) @_ZSt4cout, i32 %119)
  %121 = getelementptr inbounds [100001 x i32], [100001 x i32]* %1, i64 0, i64 2
  %122 = load i32, i32* %121, align 8, !tbaa !5
  %123 = load i32, i32* %3, align 4, !tbaa !5
  %124 = icmp eq i32 %122, %123
  br i1 %124, label %136, label %125

125:                                              ; preds = %117, %125
  %126 = phi i64 [ %131, %125 ], [ 2, %117 ]
  %127 = phi i32* [ %132, %125 ], [ %121, %117 ]
  %128 = call nonnull align 8 dereferenceable(8) %"class.std::basic_ostream"* @_ZSt16__ostream_insertIcSt11char_traitsIcEERSt13basic_ostreamIT_T0_ES6_PKS3_l(%"class.std::basic_ostream"* nonnull align 8 dereferenceable(8) @_ZSt4cout, i8* nonnull getelementptr inbounds ([2 x i8], [2 x i8]* @.str, i64 0, i64 0), i64 1)
  %129 = load i32, i32* %127, align 4, !tbaa !5
  %130 = call nonnull align 8 dereferenceable(8) %"class.std::basic_ostream"* @_ZNSolsEi(%"class.std::basic_ostream"* nonnull align 8 dereferenceable(8) @_ZSt4cout, i32 %129)
  %131 = add nuw i64 %126, 1
  %132 = getelementptr inbounds [100001 x i32], [100001 x i32]* %1, i64 0, i64 %131
  %133 = load i32, i32* %132, align 4, !tbaa !5
  %134 = load i32, i32* %3, align 4, !tbaa !5
  %135 = icmp eq i32 %133, %134
  br i1 %135, label %136, label %125, !llvm.loop !16

136:                                              ; preds = %125, %117
  %137 = load i8*, i8** bitcast (%"class.std::basic_ostream"* @_ZSt4cout to i8**), align 8, !tbaa !17
  %138 = getelementptr i8, i8* %137, i64 -24
  %139 = bitcast i8* %138 to i64*
  %140 = load i64, i64* %139, align 8
  %141 = add nsw i64 %140, 240
  %142 = getelementptr inbounds i8, i8* bitcast (%"class.std::basic_ostream"* @_ZSt4cout to i8*), i64 %141
  %143 = bitcast i8* %142 to %"class.std::ctype"**
  %144 = load %"class.std::ctype"*, %"class.std::ctype"** %143, align 8, !tbaa !19
  %145 = icmp eq %"class.std::ctype"* %144, null
  br i1 %145, label %146, label %147

146:                                              ; preds = %136
  call void @_ZSt16__throw_bad_castv() #8
  unreachable

147:                                              ; preds = %136
  %148 = getelementptr inbounds %"class.std::ctype", %"class.std::ctype"* %144, i64 0, i32 8
  %149 = load i8, i8* %148, align 8, !tbaa !23
  %150 = icmp eq i8 %149, 0
  br i1 %150, label %154, label %151

151:                                              ; preds = %147
  %152 = getelementptr inbounds %"class.std::ctype", %"class.std::ctype"* %144, i64 0, i32 9, i64 10
  %153 = load i8, i8* %152, align 1, !tbaa !25
  br label %160

154:                                              ; preds = %147
  call void @_ZNKSt5ctypeIcE13_M_widen_initEv(%"class.std::ctype"* nonnull align 8 dereferenceable(570) %144)
  %155 = bitcast %"class.std::ctype"* %144 to i8 (%"class.std::ctype"*, i8)***
  %156 = load i8 (%"class.std::ctype"*, i8)**, i8 (%"class.std::ctype"*, i8)*** %155, align 8, !tbaa !17
  %157 = getelementptr inbounds i8 (%"class.std::ctype"*, i8)*, i8 (%"class.std::ctype"*, i8)** %156, i64 6
  %158 = load i8 (%"class.std::ctype"*, i8)*, i8 (%"class.std::ctype"*, i8)** %157, align 8
  %159 = call signext i8 %158(%"class.std::ctype"* nonnull align 8 dereferenceable(570) %144, i8 signext 10)
  br label %160

160:                                              ; preds = %151, %154
  %161 = phi i8 [ %153, %151 ], [ %159, %154 ]
  %162 = call nonnull align 8 dereferenceable(8) %"class.std::basic_ostream"* @_ZNSo3putEc(%"class.std::basic_ostream"* nonnull align 8 dereferenceable(8) @_ZSt4cout, i8 signext %161)
  %163 = call nonnull align 8 dereferenceable(8) %"class.std::basic_ostream"* @_ZNSo5flushEv(%"class.std::basic_ostream"* nonnull align 8 dereferenceable(8) %162)
  call void @llvm.lifetime.end.p0i8(i64 4, i8* nonnull %6) #7
  call void @llvm.lifetime.end.p0i8(i64 4, i8* nonnull %5) #7
  call void @llvm.lifetime.end.p0i8(i64 400004, i8* nonnull %4) #7
  ret i32 0
}

; Function Attrs: argmemonly mustprogress nofree nosync nounwind willreturn
declare void @llvm.lifetime.start.p0i8(i64 immarg, i8* nocapture) #4

declare nonnull align 8 dereferenceable(16) %"class.std::basic_istream"* @_ZNSirsERi(%"class.std::basic_istream"* nonnull align 8 dereferenceable(16), i32* nonnull align 4 dereferenceable(4)) local_unnamed_addr #0

declare nonnull align 8 dereferenceable(8) %"class.std::basic_ostream"* @_ZNSolsEi(%"class.std::basic_ostream"* nonnull align 8 dereferenceable(8), i32) local_unnamed_addr #0

; Function Attrs: argmemonly mustprogress nofree nosync nounwind willreturn
declare void @llvm.lifetime.end.p0i8(i64 immarg, i8* nocapture) #4

declare nonnull align 8 dereferenceable(8) %"class.std::basic_ostream"* @_ZSt16__ostream_insertIcSt11char_traitsIcEERSt13basic_ostreamIT_T0_ES6_PKS3_l(%"class.std::basic_ostream"* nonnull align 8 dereferenceable(8), i8*, i64) local_unnamed_addr #0

declare nonnull align 8 dereferenceable(8) %"class.std::basic_ostream"* @_ZNSo3putEc(%"class.std::basic_ostream"* nonnull align 8 dereferenceable(8), i8 signext) local_unnamed_addr #0

declare nonnull align 8 dereferenceable(8) %"class.std::basic_ostream"* @_ZNSo5flushEv(%"class.std::basic_ostream"* nonnull align 8 dereferenceable(8)) local_unnamed_addr #0

; Function Attrs: noreturn
declare void @_ZSt16__throw_bad_castv() local_unnamed_addr #5

declare void @_ZNKSt5ctypeIcE13_M_widen_initEv(%"class.std::ctype"* nonnull align 8 dereferenceable(570)) local_unnamed_addr #0

; Function Attrs: sspstrong uwtable
define internal void @_GLOBAL__sub_I_950.cpp() #6 section ".text.startup" {
  tail call void @_ZNSt8ios_base4InitC1Ev(%"class.std::ios_base::Init"* nonnull align 1 dereferenceable(1) @_ZStL8__ioinit)
  %1 = tail call i32 @__cxa_atexit(void (i8*)* bitcast (void (%"class.std::ios_base::Init"*)* @_ZNSt8ios_base4InitD1Ev to void (i8*)*), i8* getelementptr inbounds (%"class.std::ios_base::Init", %"class.std::ios_base::Init"* @_ZStL8__ioinit, i64 0, i32 0), i8* nonnull @__dso_handle) #7
  ret void
}


!llvm.module.flags = !{!0, !1, !2, !3}
!llvm.ident = !{!4}

!0 = !{i32 1, !"wchar_size", i32 4}
!1 = !{i32 7, !"PIC Level", i32 2}
!2 = !{i32 7, !"PIE Level", i32 2}
!3 = !{i32 7, !"uwtable", i32 1}
!4 = !{!"clang version 13.0.0"}
!5 = !{!6, !6, i64 0}
!6 = !{!"int", !7, i64 0}
!7 = !{!"omnipotent char", !8, i64 0}
!8 = !{!"Simple C++ TBAA"}
!9 = distinct !{!9, !10}
!10 = !{!"llvm.loop.mustprogress"}
!11 = distinct !{!11, !10, !12}
!12 = !{!"llvm.loop.isvectorized", i32 1}
!13 = distinct !{!13, !10, !14, !12}
!14 = !{!"llvm.loop.unroll.runtime.disable"}
!15 = distinct !{!15, !10}
!16 = distinct !{!16, !10}
!17 = !{!18, !18, i64 0}
!18 = !{!"vtable pointer", !8, i64 0}
!19 = !{!20, !21, i64 240}
!20 = !{!"_ZTSSt9basic_iosIcSt11char_traitsIcEE", !21, i64 216, !7, i64 224, !22, i64 225, !21, i64 232, !21, i64 240, !21, i64 248, !21, i64 256}
!21 = !{!"any pointer", !7, i64 0}
!22 = !{!"bool", !7, i64 0}
!23 = !{!24, !7, i64 56}
!24 = !{!"_ZTSSt5ctypeIcE", !21, i64 16, !22, i64 24, !21, i64 32, !21, i64 40, !21, i64 48, !7, i64 56, !7, i64 57, !7, i64 313, !7, i64 569}
!25 = !{!7, !7, i64 0}
